; Function Attrs: mustprogress nofree norecurse nosync nounwind willreturn memory(argmem: read) uwtable
define noundef i32 @_ZNK5Yosys3AST7AstNode7isConstEv(ptr nocapture noundef nonnull readonly align 8 dereferenceable(284) %0) local_unnamed_addr #12 align 2 {
  %2 = getelementptr inbounds i8, ptr %0, i64 4
  %3 = load i32, ptr %2, align 4
  %switch.selectcmp = icmp eq i32 %3, 17
  %switch.select = select i1 %switch.selectcmp, i32 2, i32 0
  %switch.selectcmp2 = icmp eq i32 %3, 16
  %switch.select3 = select i1 %switch.selectcmp2, i32 1, i32 %switch.select
  ret i32 %switch.select3
}